target datalayout = "e-m:e-p270:32:32-p271:32:32-p272:64:64-i64:64-i128:128-f80:128-n8:16:32:64-S128"
target triple = "x86_64-pc-linux-gnu"

%struct.slurm_conf_t = type { i64, ptr, i16, ptr, ptr, ptr, ptr, ptr, i16, ptr, ptr, ptr, ptr, ptr, ptr, ptr, i16, ptr, ptr, ptr, ptr, i16, ptr, ptr, ptr, i64, ptr, ptr, ptr, ptr, i16, ptr, ptr, i16, i32, ptr, i32, ptr, i32, i32, ptr, ptr, i64, i64, ptr, i16, i16, ptr, i32, i32, ptr, i32, ptr, i32, i16, i16, i16, ptr, i16, i16, ptr, ptr, i32, i16, i16, ptr, i32, i16, ptr, ptr, ptr, ptr, i16, ptr, ptr, ptr, ptr, i32, ptr, ptr, ptr, ptr, i16, i16, ptr, i32, i32, i32, i16, i16, ptr, ptr, i16, ptr, ptr, i32, i32, i32, i32, i32, i64, i32, i32, i16, ptr, ptr, i32, ptr, ptr, ptr, i16, i32, ptr, ptr, i16, ptr, ptr, i32, i16, ptr, ptr, ptr, ptr, i32, i32, i16, i16, i32, ptr, i16, ptr, i32, i32, i32, i32, i32, i32, ptr, i16, ptr, ptr, i32, i16, ptr, i32, i16, i16, ptr, ptr, ptr, i16, ptr, ptr, ptr, ptr, i16, i16, ptr, i16, ptr, i16, ptr, i16, ptr, i16, ptr, ptr, ptr, ptr, i16, ptr, ptr, ptr, i32, ptr, i32, ptr, ptr, i16, ptr, ptr, i32, i16, ptr, ptr, i16, i16, ptr, i16, ptr, ptr, ptr, i32, ptr, i16, i16, ptr, ptr, ptr, ptr, ptr, ptr, ptr, ptr, i16, i32, i16, ptr, ptr, ptr, ptr, i32, ptr, ptr, ptr, i16, ptr, ptr, ptr, i16, ptr, i16, ptr, i16, i16, ptr }
%struct.prep_ops_t = type { ptr, ptr, ptr, ptr, ptr, ptr }

@.str = private unnamed_addr constant [5 x i8] c"prep\00", align 1
@.str.1 = private unnamed_addr constant [32 x i8] c"%s: pthread_rwlock_wrlock(): %m\00", align 1
@__func__.prep_g_init = private unnamed_addr constant [12 x i8] c"prep_g_init\00", align 1
@g_context_cnt = internal global i32 -1, align 4
@slurm_conf = external global %struct.slurm_conf_t, align 8
@prep_plugin_list = internal global ptr null, align 8
@.str.2 = private unnamed_addr constant [2 x i8] c",\00", align 1
@ops = internal global ptr null, align 8
@.str.3 = private unnamed_addr constant [7 x i8] c"prep.c\00", align 1
@g_context = internal global ptr null, align 8
@.str.4 = private unnamed_addr constant [6 x i8] c"prep/\00", align 1
@.str.5 = private unnamed_addr constant [8 x i8] c"prep/%s\00", align 1
@syms = internal global [6 x ptr] [ptr @.str.10, ptr @.str.11, ptr @.str.12, ptr @.str.13, ptr @.str.14, ptr @.str.15], align 16
@.str.6 = private unnamed_addr constant [36 x i8] c"%s: cannot create %s context for %s\00", align 1
@prep_is_required = internal global [5 x i8] zeroinitializer, align 1
@.str.7 = private unnamed_addr constant [32 x i8] c"%s: pthread_rwlock_unlock(): %m\00", align 1
@g_context_lock = internal global { { i32, i32, i32, i32, i32, i32, i32, i32, i8, [7 x i8], i64, i32, [4 x i8] } } zeroinitializer, align 8

; Function Attrs: nounwind uwtable
define dso_local i32 @prep_g_init(ptr noundef %0) #0 {
  %2 = alloca ptr, align 8
  %3 = alloca i32, align 4
  %4 = alloca ptr, align 8
  %5 = alloca ptr, align 8
  %6 = alloca ptr, align 8
  %7 = alloca ptr, align 8
  %8 = alloca ptr, align 8
  %9 = alloca i32, align 4
  %10 = alloca i32, align 4
  %11 = alloca i32, align 4
  %12 = alloca i32, align 4
  %13 = alloca i32, align 4
  store ptr %0, ptr %2, align 8
  call void @llvm.lifetime.start.p0(i64 4, ptr %3) #7
  store i32 0, ptr %3, align 4
  call void @llvm.lifetime.start.p0(i64 8, ptr %4) #7
  store ptr null, ptr %4, align 8
  call void @llvm.lifetime.start.p0(i64 8, ptr %5) #7
  call void @llvm.lifetime.start.p0(i64 8, ptr %6) #7
  call void @llvm.lifetime.start.p0(i64 8, ptr %7) #7
  store ptr @.str, ptr %7, align 8
  call void @llvm.lifetime.start.p0(i64 8, ptr %8) #7
  br label %14

14:                                               ; preds = %1
  call void @llvm.lifetime.start.p0(i64 4, ptr %9) #7
  %15 = call i32 @pthread_rwlock_wrlock(ptr noundef @g_context_lock) #7
  store i32 %15, ptr %9, align 4
  %16 = load i32, ptr %9, align 4
  %17 = icmp ne i32 %16, 0
  br i1 %17, label %18, label %21

18:                                               ; preds = %14
  %19 = load i32, ptr %9, align 4
  %20 = call ptr @__errno_location() #8
  store i32 %19, ptr %20, align 4
  call void (ptr, ...) @fatal_abort(ptr noundef @.str.1, ptr noundef @__func__.prep_g_init) #9
  unreachable

21:                                               ; preds = %14
  call void @llvm.lifetime.end.p0(i64 4, ptr %9) #7
  br label %22

22:                                               ; preds = %21
  br label %23

23:                                               ; preds = %22
  %24 = load i32, ptr @g_context_cnt, align 4
  %25 = icmp sge i32 %24, 0
  br i1 %25, label %26, label %27

26:                                               ; preds = %23
  br label %137

27:                                               ; preds = %23
  store i32 0, ptr @g_context_cnt, align 4
  %28 = load ptr, ptr getelementptr inbounds nuw (%struct.slurm_conf_t, ptr @slurm_conf, i32 0, i32 122), align 8
  %29 = icmp ne ptr %28, null
  br i1 %29, label %30, label %35

30:                                               ; preds = %27
  %31 = load ptr, ptr getelementptr inbounds nuw (%struct.slurm_conf_t, ptr @slurm_conf, i32 0, i32 122), align 8
  %32 = getelementptr inbounds i8, ptr %31, i64 0
  %33 = load i8, ptr %32, align 1
  %34 = icmp ne i8 %33, 0
  br i1 %34, label %36, label %35

35:                                               ; preds = %30, %27
  br label %137

36:                                               ; preds = %30
  %37 = load ptr, ptr getelementptr inbounds nuw (%struct.slurm_conf_t, ptr @slurm_conf, i32 0, i32 122), align 8
  %38 = call ptr @xstrdup(ptr noundef %37)
  store ptr %38, ptr @prep_plugin_list, align 8
  %39 = load ptr, ptr @prep_plugin_list, align 8
  %40 = call ptr @xstrdup(ptr noundef %39)
  store ptr %40, ptr %6, align 8
  store ptr %40, ptr %5, align 8
  br label %41

41:                                               ; preds = %96, %36
  %42 = load ptr, ptr %5, align 8
  %43 = call ptr @strtok_r(ptr noundef %42, ptr noundef @.str.2, ptr noundef %4) #7
  store ptr %43, ptr %8, align 8
  %44 = icmp ne ptr %43, null
  br i1 %44, label %45, label %99

45:                                               ; preds = %41
  %46 = load i32, ptr @g_context_cnt, align 4
  %47 = add nsw i32 %46, 1
  %48 = sext i32 %47 to i64
  %49 = call ptr @slurm_xrecalloc(ptr noundef @ops, i64 noundef %48, i64 noundef 48, i1 noundef zeroext true, i1 noundef zeroext false, ptr noundef @.str.3, i32 noundef 96, ptr noundef @__func__.prep_g_init)
  %50 = load i32, ptr @g_context_cnt, align 4
  %51 = add nsw i32 %50, 1
  %52 = sext i32 %51 to i64
  %53 = call ptr @slurm_xrecalloc(ptr noundef @g_context, i64 noundef %52, i64 noundef 8, i1 noundef zeroext true, i1 noundef zeroext false, ptr noundef @.str.3, i32 noundef 98, ptr noundef @__func__.prep_g_init)
  %54 = load ptr, ptr %8, align 8
  %55 = call i32 @xstrncmp(ptr noundef %54, ptr noundef @.str.4, i64 noundef 5)
  %56 = icmp eq i32 %55, 0
  br i1 %56, label %57, label %60

57:                                               ; preds = %45
  %58 = load ptr, ptr %8, align 8
  %59 = getelementptr inbounds i8, ptr %58, i64 5
  store ptr %59, ptr %8, align 8
  br label %60

60:                                               ; preds = %57, %45
  %61 = load ptr, ptr %8, align 8
  %62 = call ptr (ptr, ...) @xstrdup_printf(ptr noundef @.str.5, ptr noundef %61)
  store ptr %62, ptr %8, align 8
  %63 = load ptr, ptr %7, align 8
  %64 = load ptr, ptr %8, align 8
  %65 = load ptr, ptr @ops, align 8
  %66 = load i32, ptr @g_context_cnt, align 4
  %67 = sext i32 %66 to i64
  %68 = getelementptr inbounds %struct.prep_ops_t, ptr %65, i64 %67
  %69 = call ptr @plugin_context_create(ptr noundef %63, ptr noundef %64, ptr noundef %68, ptr noundef @syms, i64 noundef 48)
  %70 = load ptr, ptr @g_context, align 8
  %71 = load i32, ptr @g_context_cnt, align 4
  %72 = sext i32 %71 to i64
  %73 = getelementptr inbounds ptr, ptr %70, i64 %72
  store ptr %69, ptr %73, align 8
  %74 = load ptr, ptr @g_context, align 8
  %75 = load i32, ptr @g_context_cnt, align 4
  %76 = sext i32 %75 to i64
  %77 = getelementptr inbounds ptr, ptr %74, i64 %76
  %78 = load ptr, ptr %77, align 8
  %79 = icmp ne ptr %78, null
  br i1 %79, label %84, label %80

80:                                               ; preds = %60
  %81 = load ptr, ptr %7, align 8
  %82 = load ptr, ptr %8, align 8
  %83 = call i32 (ptr, ...) @error(ptr noundef @.str.6, ptr noundef @__func__.prep_g_init, ptr noundef %81, ptr noundef %82)
  store i32 -1, ptr %3, align 4
  call void @slurm_xfree(ptr noundef %8)
  br label %99

84:                                               ; preds = %60
  %85 = load ptr, ptr %2, align 8
  %86 = icmp ne ptr %85, null
  br i1 %86, label %87, label %96

87:                                               ; preds = %84
  %88 = load ptr, ptr @ops, align 8
  %89 = load i32, ptr @g_context_cnt, align 4
  %90 = sext i32 %89 to i64
  %91 = getelementptr inbounds %struct.prep_ops_t, ptr %88, i64 %90
  %92 = getelementptr inbounds nuw %struct.prep_ops_t, ptr %91, i32 0, i32 0
  %93 = load ptr, ptr %92, align 8
  %94 = load ptr, ptr %2, align 8
  %95 = call i32 %93(ptr noundef %94)
  br label %96

96:                                               ; preds = %87, %84
  call void @slurm_xfree(ptr noundef %8)
  %97 = load i32, ptr @g_context_cnt, align 4
  %98 = add nsw i32 %97, 1
  store i32 %98, ptr @g_context_cnt, align 4
  store ptr null, ptr %5, align 8
  br label %41, !llvm.loop !8

99:                                               ; preds = %80, %41
  call void @slurm_xfree(ptr noundef %6)
  call void @llvm.lifetime.start.p0(i64 4, ptr %10) #7
  store i32 0, ptr %10, align 4
  br label %100

100:                                              ; preds = %133, %99
  %101 = load i32, ptr %10, align 4
  %102 = icmp slt i32 %101, 5
  br i1 %102, label %104, label %103

103:                                              ; preds = %100
  store i32 7, ptr %11, align 4
  call void @llvm.lifetime.end.p0(i64 4, ptr %10) #7
  br label %136

104:                                              ; preds = %100
  call void @llvm.lifetime.start.p0(i64 4, ptr %12) #7
  store i32 0, ptr %12, align 4
  br label %105

105:                                              ; preds = %128, %104
  %106 = load i32, ptr %12, align 4
  %107 = load i32, ptr @g_context_cnt, align 4
  %108 = icmp slt i32 %106, %107
  br i1 %108, label %110, label %109

109:                                              ; preds = %105
  store i32 10, ptr %11, align 4
  br label %131

110:                                              ; preds = %105
  %111 = load ptr, ptr @ops, align 8
  %112 = load i32, ptr %12, align 4
  %113 = sext i32 %112 to i64
  %114 = getelementptr inbounds %struct.prep_ops_t, ptr %111, i64 %113
  %115 = getelementptr inbounds nuw %struct.prep_ops_t, ptr %114, i32 0, i32 5
  %116 = load ptr, ptr %115, align 8
  %117 = load i32, ptr %10, align 4
  %118 = load i32, ptr %10, align 4
  %119 = sext i32 %118 to i64
  %120 = getelementptr inbounds [5 x i8], ptr @prep_is_required, i64 0, i64 %119
  call void %116(i32 noundef %117, ptr noundef %120)
  %121 = load i32, ptr %10, align 4
  %122 = sext i32 %121 to i64
  %123 = getelementptr inbounds [5 x i8], ptr @prep_is_required, i64 0, i64 %122
  %124 = load i8, ptr %123, align 1, !range !11, !noundef !12
  %125 = trunc i8 %124 to i1
  br i1 %125, label %126, label %127

126:                                              ; preds = %110
  store i32 10, ptr %11, align 4
  br label %131

127:                                              ; preds = %110
  br label %128

128:                                              ; preds = %127
  %129 = load i32, ptr %12, align 4
  %130 = add nsw i32 %129, 1
  store i32 %130, ptr %12, align 4
  br label %105, !llvm.loop !13

131:                                              ; preds = %126, %109
  call void @llvm.lifetime.end.p0(i64 4, ptr %12) #7
  br label %132

132:                                              ; preds = %131
  br label %133

133:                                              ; preds = %132
  %134 = load i32, ptr %10, align 4
  %135 = add nsw i32 %134, 1
  store i32 %135, ptr %10, align 4
  br label %100, !llvm.loop !14

136:                                              ; preds = %103
  br label %137

137:                                              ; preds = %136, %35, %26
  br label %138

138:                                              ; preds = %137
  call void @llvm.lifetime.start.p0(i64 4, ptr %13) #7
  %139 = call i32 @pthread_rwlock_unlock(ptr noundef @g_context_lock) #7
  store i32 %139, ptr %13, align 4
  %140 = load i32, ptr %13, align 4
  %141 = icmp ne i32 %140, 0
  br i1 %141, label %142, label %145

142:                                              ; preds = %138
  %143 = load i32, ptr %13, align 4
  %144 = call ptr @__errno_location() #8
  store i32 %143, ptr %144, align 4
  call void (ptr, ...) @fatal_abort(ptr noundef @.str.7, ptr noundef @__func__.prep_g_init) #9
  unreachable

145:                                              ; preds = %138
  call void @llvm.lifetime.end.p0(i64 4, ptr %13) #7
  br label %146

146:                                              ; preds = %145
  br label %147

147:                                              ; preds = %146
  %148 = load i32, ptr %3, align 4
  %149 = icmp ne i32 %148, 0
  br i1 %149, label %150, label %152

150:                                              ; preds = %147
  %151 = call i32 @prep_g_fini()
  br label %152

152:                                              ; preds = %150, %147
  %153 = load i32, ptr %3, align 4
  store i32 1, ptr %11, align 4
  call void @llvm.lifetime.end.p0(i64 8, ptr %8) #7
  call void @llvm.lifetime.end.p0(i64 8, ptr %7) #7
  call void @llvm.lifetime.end.p0(i64 8, ptr %6) #7
  call void @llvm.lifetime.end.p0(i64 8, ptr %5) #7
  call void @llvm.lifetime.end.p0(i64 8, ptr %4) #7
  call void @llvm.lifetime.end.p0(i64 4, ptr %3) #7
  ret i32 %153
}