; Function Attrs: nounwind uwtable
define dso_local range(i32 -1, 1) i32 @prep_g_init(ptr noundef %0) local_unnamed_addr #0 {
  %2 = alloca ptr, align 8
  %3 = alloca ptr, align 8
  %4 = alloca ptr, align 8
  call void @llvm.lifetime.start.p0(i64 8, ptr nonnull %2) #9
  store ptr null, ptr %2, align 8
  call void @llvm.lifetime.start.p0(i64 8, ptr nonnull %3) #9
  call void @llvm.lifetime.start.p0(i64 8, ptr nonnull %4) #9
  %5 = tail call i32 @pthread_rwlock_wrlock(ptr noundef nonnull @g_context_lock) #9
  %.not = icmp eq i32 %5, 0
  br i1 %.not, label %8, label %6

6:                                                ; preds = %1
  %7 = tail call ptr @__errno_location() #10
  store i32 %5, ptr %7, align 4
  tail call void (ptr, ...) @fatal_abort(ptr noundef nonnull @.str.1, ptr noundef nonnull @__func__.prep_g_init) #11
  unreachable

8:                                                ; preds = %1
  %9 = load i32, ptr @g_context_cnt, align 4
  %10 = icmp sgt i32 %9, -1
  br i1 %10, label %.loopexit, label %11

11:                                               ; preds = %8
  store i32 0, ptr @g_context_cnt, align 4
  %12 = load ptr, ptr getelementptr inbounds nuw (i8, ptr @slurm_conf, i64 824), align 8
  %.not25 = icmp eq ptr %12, null
  br i1 %.not25, label %.loopexit, label %13

13:                                               ; preds = %11
  %14 = load i8, ptr %12, align 1
  %.not26 = icmp eq i8 %14, 0
  br i1 %.not26, label %.loopexit, label %15

15:                                               ; preds = %13
  %16 = tail call ptr @xstrdup(ptr noundef nonnull %12) #9
  store ptr %16, ptr @prep_plugin_list, align 8
  %17 = tail call ptr @xstrdup(ptr noundef %16) #9
  store ptr %17, ptr %3, align 8
  %18 = call ptr @strtok_r(ptr noundef %17, ptr noundef nonnull @.str.2, ptr noundef nonnull %2) #9
  store ptr %18, ptr %4, align 8
  %.not2733 = icmp eq ptr %18, null
  br i1 %.not2733, label %.loopexit32, label %.lr.ph

.lr.ph:                                           ; preds = %15
  %.not29 = icmp eq ptr %0, null
  br label %19

19:                                               ; preds = %.lr.ph, %57
  %20 = load i32, ptr @g_context_cnt, align 4
  %21 = add nsw i32 %20, 1
  %22 = sext i32 %21 to i64
  %23 = call ptr @slurm_xrecalloc(ptr noundef nonnull @ops, i64 noundef %22, i64 noundef 48, i1 noundef zeroext true, i1 noundef zeroext false, ptr noundef nonnull @.str.3, i32 noundef 96, ptr noundef nonnull @__func__.prep_g_init) #9
  %24 = load i32, ptr @g_context_cnt, align 4
  %25 = add nsw i32 %24, 1
  %26 = sext i32 %25 to i64
  %27 = call ptr @slurm_xrecalloc(ptr noundef nonnull @g_context, i64 noundef %26, i64 noundef 8, i1 noundef zeroext true, i1 noundef zeroext false, ptr noundef nonnull @.str.3, i32 noundef 98, ptr noundef nonnull @__func__.prep_g_init) #9
  %28 = load ptr, ptr %4, align 8
  %29 = call i32 @xstrncmp(ptr noundef %28, ptr noundef nonnull @.str.4, i64 noundef 5) #9
  %30 = icmp eq i32 %29, 0
  %.pre = load ptr, ptr %4, align 8
  br i1 %30, label %31, label %33

31:                                               ; preds = %19
  %32 = getelementptr inbounds nuw i8, ptr %.pre, i64 5
  store ptr %32, ptr %4, align 8
  br label %33

33:                                               ; preds = %31, %19
  %34 = phi ptr [ %32, %31 ], [ %.pre, %19 ]
  %35 = call ptr (ptr, ...) @xstrdup_printf(ptr noundef nonnull @.str.5, ptr noundef %34) #9
  store ptr %35, ptr %4, align 8
  %36 = load ptr, ptr @ops, align 8
  %37 = load i32, ptr @g_context_cnt, align 4
  %38 = sext i32 %37 to i64
  %39 = getelementptr inbounds %struct.prep_ops_t, ptr %36, i64 %38
  %40 = call ptr @plugin_context_create(ptr noundef nonnull @.str, ptr noundef %35, ptr noundef %39, ptr noundef nonnull @syms, i64 noundef 48) #9
  %41 = load ptr, ptr @g_context, align 8
  %42 = load i32, ptr @g_context_cnt, align 4
  %43 = sext i32 %42 to i64
  %44 = getelementptr inbounds ptr, ptr %41, i64 %43
  store ptr %40, ptr %44, align 8
  %45 = load ptr, ptr @g_context, align 8
  %46 = getelementptr inbounds ptr, ptr %45, i64 %43
  %47 = load ptr, ptr %46, align 8
  %.not28 = icmp eq ptr %47, null
  br i1 %.not28, label %48, label %51

48:                                               ; preds = %33
  %49 = load ptr, ptr %4, align 8
  %50 = call i32 (ptr, ...) @error(ptr noundef nonnull @.str.6, ptr noundef nonnull @__func__.prep_g_init, ptr noundef nonnull @.str, ptr noundef %49) #9
  call void @slurm_xfree(ptr noundef nonnull %4) #9
  br label %.loopexit32

51:                                               ; preds = %33
  br i1 %.not29, label %57, label %52

52:                                               ; preds = %51
  %53 = load ptr, ptr @ops, align 8
  %54 = getelementptr inbounds %struct.prep_ops_t, ptr %53, i64 %43
  %55 = load ptr, ptr %54, align 8
  %56 = call i32 %55(ptr noundef nonnull %0) #9
  br label %57

57:                                               ; preds = %52, %51
  call void @slurm_xfree(ptr noundef nonnull %4) #9
  %58 = load i32, ptr @g_context_cnt, align 4
  %59 = add nsw i32 %58, 1
  store i32 %59, ptr @g_context_cnt, align 4
  %60 = call ptr @strtok_r(ptr noundef null, ptr noundef nonnull @.str.2, ptr noundef nonnull %2) #9
  store ptr %60, ptr %4, align 8
  %.not27 = icmp eq ptr %60, null
  br i1 %.not27, label %.loopexit32, label %19, !llvm.loop !8

.loopexit32:                                      ; preds = %57, %15, %48
  %.0 = phi i32 [ -1, %48 ], [ 0, %15 ], [ 0, %57 ]
  call void @slurm_xfree(ptr noundef nonnull %3) #9
  %61 = load i32, ptr @g_context_cnt, align 4
  %62 = icmp sgt i32 %61, 0
  br i1 %62, label %.preheader, label %.loopexit

.preheader:                                       ; preds = %.loopexit32, %._crit_edge
  %63 = phi i32 [ %76, %._crit_edge ], [ %61, %.loopexit32 ]
  %indvars.iv43 = phi i64 [ %indvars.iv.next44, %._crit_edge ], [ 0, %.loopexit32 ]
  %64 = icmp sgt i32 %63, 0
  br i1 %64, label %.lr.ph35, label %._crit_edge

.lr.ph35:                                         ; preds = %.preheader
  %65 = getelementptr inbounds nuw [5 x i8], ptr @prep_is_required, i64 0, i64 %indvars.iv43
  %66 = trunc nuw nsw i64 %indvars.iv43 to i32
  br label %67

67:                                               ; preds = %67, %.lr.ph35
  %indvars.iv = phi i64 [ %indvars.iv.next, %67 ], [ 0, %.lr.ph35 ]
  %68 = load ptr, ptr @ops, align 8
  %69 = getelementptr inbounds nuw %struct.prep_ops_t, ptr %68, i64 %indvars.iv, i32 5
  %70 = load ptr, ptr %69, align 8
  call void %70(i32 noundef %66, ptr noundef nonnull %65) #9
  %71 = load i8, ptr %65, align 1, !range !11, !noundef !12
  %72 = trunc nuw i8 %71 to i1
  %indvars.iv.next = add nuw nsw i64 %indvars.iv, 1
  %73 = load i32, ptr @g_context_cnt, align 4
  %74 = sext i32 %73 to i64
  %75 = icmp sge i64 %indvars.iv.next, %74
  %or.cond.not = select i1 %72, i1 true, i1 %75
  br i1 %or.cond.not, label %._crit_edge, label %67, !llvm.loop !13

._crit_edge:                                      ; preds = %67, %.preheader
  %76 = phi i32 [ %63, %.preheader ], [ %73, %67 ]
  %indvars.iv.next44 = add nuw nsw i64 %indvars.iv43, 1
  %exitcond.not = icmp eq i64 %indvars.iv.next44, 5
  br i1 %exitcond.not, label %.loopexit, label %.preheader, !llvm.loop !14

.loopexit:                                        ; preds = %._crit_edge, %.loopexit32, %8, %13, %11
  %.1 = phi i32 [ 0, %8 ], [ 0, %13 ], [ 0, %11 ], [ %.0, %.loopexit32 ], [ %.0, %._crit_edge ]
  %77 = call i32 @pthread_rwlock_unlock(ptr noundef nonnull @g_context_lock) #9
  %.not30 = icmp eq i32 %77, 0
  br i1 %.not30, label %80, label %78

78:                                               ; preds = %.loopexit
  %79 = tail call ptr @__errno_location() #10
  store i32 %77, ptr %79, align 4
  call void (ptr, ...) @fatal_abort(ptr noundef nonnull @.str.7, ptr noundef nonnull @__func__.prep_g_init) #11
  unreachable

80:                                               ; preds = %.loopexit
  %.not31 = icmp eq i32 %.1, 0
  br i1 %.not31, label %83, label %81

81:                                               ; preds = %80
  %82 = call i32 @prep_g_fini()
  br label %83

83:                                               ; preds = %81, %80
  call void @llvm.lifetime.end.p0(i64 8, ptr nonnull %4) #9
  call void @llvm.lifetime.end.p0(i64 8, ptr nonnull %3) #9
  call void @llvm.lifetime.end.p0(i64 8, ptr nonnull %2) #9
  ret i32 %.1
}